; Function Attrs: mustprogress nounwind uwtable
define dso_local void @_ZN4node4i18n9ConverterC2EP10UConverterPKc(ptr nocapture noundef nonnull writeonly align 8 dereferenceable(8) %this, ptr noundef %converter, ptr noundef %sub) unnamed_addr #3 align 2 {
entry:
  %status.i = alloca i32, align 4
  store ptr %converter, ptr %this, align 8
  call void @llvm.lifetime.start.p0(i64 4, ptr nonnull %status.i)
  %cmp.i.not.i = icmp eq ptr %converter, null
  br i1 %cmp.i.not.i, label %do.body4.i, label %do.end5.i

do.body4.i:                                       ; preds = %entry
  tail call void @_ZN4node6AssertERKNS_13AssertionInfoE(ptr noundef nonnull align 8 dereferenceable(24) @_ZZN4node4i18n9Converter15set_subst_charsEPKcE4args) #21
  tail call void @abort() #22
  unreachable

do.end5.i:                                        ; preds = %entry
  store i32 0, ptr %status.i, align 4
  %cmp.not.i = icmp eq ptr %sub, null
  br i1 %cmp.not.i, label %_ZN4node4i18n9Converter15set_subst_charsEPKc.exit, label %if.then6.i

if.then6.i:                                       ; preds = %do.end5.i
  %call9.i = tail call i64 @strlen(ptr noundef nonnull dereferenceable(1) %sub) #23
  %conv.i = trunc i64 %call9.i to i8
  call void @ucnv_setSubstChars_74(ptr noundef nonnull %converter, ptr noundef nonnull %sub, i8 noundef signext %conv.i, ptr noundef nonnull %status.i) #21
  %0 = load i32, ptr %status.i, align 4
  %cmp.i3.i = icmp sgt i32 %0, 0
  br i1 %cmp.i3.i, label %do.body17.i, label %_ZN4node4i18n9Converter15set_subst_charsEPKc.exit

do.body17.i:                                      ; preds = %if.then6.i
  call void @_ZN4node6AssertERKNS_13AssertionInfoE(ptr noundef nonnull align 8 dereferenceable(24) @_ZZN4node4i18n9Converter15set_subst_charsEPKcE4args_0) #21
  call void @abort() #22
  unreachable

_ZN4node4i18n9Converter15set_subst_charsEPKc.exit: ; preds = %do.end5.i, %if.then6.i
  call void @llvm.lifetime.end.p0(i64 4, ptr nonnull %status.i)
  ret void
}